target datalayout = "e-m:e-p270:32:32-p271:32:32-p272:64:64-i64:64-i128:128-f80:128-n8:16:32:64-S128"
target triple = "x86_64-pc-linux-gnu"

%struct.H5O_loc_t = type { ptr, i64, i8 }

@.str.1 = private unnamed_addr constant [103 x i8] c"generated/home/dtcxzyw/WorkSpace/Projects/compilers/llvm-opt-benchmark/bench/hdf5/hdf5/src/H5Oshared.h\00", align 1
@H5E_OHDR_g = external global i64, align 8
@H5E_WRITEERROR_g = external global i64, align 8
@__func__.H5O__sdspace_shared_post_copy_file = private unnamed_addr constant [35 x i8] c"H5O__sdspace_shared_post_copy_file\00", align 1
@.str.20 = private unnamed_addr constant [42 x i8] c"unable to fix shared message in post copy\00", align 1

; Function Attrs: nounwind uwtable
define internal i32 @H5O__sdspace_shared_post_copy_file(ptr noundef %0, ptr noundef %1, ptr noundef %2, ptr noundef %3, ptr noundef %4, ptr noundef %5) #0 {
  %7 = alloca ptr, align 8
  %8 = alloca ptr, align 8
  %9 = alloca ptr, align 8
  %10 = alloca ptr, align 8
  %11 = alloca ptr, align 8
  %12 = alloca ptr, align 8
  %13 = alloca ptr, align 8
  %14 = alloca ptr, align 8
  %15 = alloca i32, align 4
  %16 = alloca i8, align 1
  store ptr %0, ptr %7, align 8
  store ptr %1, ptr %8, align 8
  store ptr %2, ptr %9, align 8
  store ptr %3, ptr %10, align 8
  store ptr %4, ptr %11, align 8
  store ptr %5, ptr %12, align 8
  %17 = load ptr, ptr %8, align 8
  store ptr %17, ptr %13, align 8
  %18 = load ptr, ptr %10, align 8
  store ptr %18, ptr %14, align 8
  store i32 0, ptr %15, align 4
  store i8 0, ptr %16, align 1
  %19 = load ptr, ptr %9, align 8
  %20 = getelementptr inbounds %struct.H5O_loc_t, ptr %19, i32 0, i32 0
  %21 = load ptr, ptr %20, align 8
  %22 = load ptr, ptr %13, align 8
  %23 = load ptr, ptr %14, align 8
  %24 = load ptr, ptr %11, align 8
  %25 = load ptr, ptr %12, align 8
  %26 = call i32 @H5O__shared_post_copy_file(ptr noundef %21, ptr noundef @H5O_MSG_SDSPACE, ptr noundef %22, ptr noundef %23, ptr noundef %24, ptr noundef %25)
  %27 = icmp slt i32 %26, 0
  br i1 %27, label %28, label %43

28:                                               ; preds = %6
  br label %29

29:                                               ; preds = %28
  br label %30

30:                                               ; preds = %29
  br label %31

31:                                               ; preds = %30
  %32 = load i64, ptr @H5E_OHDR_g, align 8
  %33 = load i64, ptr @H5E_WRITEERROR_g, align 8
  %34 = call i32 (ptr, ptr, i32, i64, i64, ptr, ...) @H5E_printf_stack(ptr noundef @.str.1, ptr noundef @__func__.H5O__sdspace_shared_post_copy_file, i32 noundef 376, i64 noundef %32, i64 noundef %33, ptr noundef @.str.20)
  br label %35

35:                                               ; preds = %31
  store i8 1, ptr %16, align 1
  %36 = load i8, ptr %16, align 1
  %37 = trunc i8 %36 to i1
  %38 = zext i1 %37 to i8
  store i8 %38, ptr %16, align 1
  br label %39

39:                                               ; preds = %35
  br label %40

40:                                               ; preds = %39
  store i32 -1, ptr %15, align 4
  br label %44

41:                                               ; No predecessors!
  br label %42

42:                                               ; preds = %41
  br label %43

43:                                               ; preds = %42, %6
  br label %44

44:                                               ; preds = %43, %40
  %45 = load i32, ptr %15, align 4
  ret i32 %45
}